target datalayout = "e-m:e-p270:32:32-p271:32:32-p272:64:64-i64:64-i128:128-f80:128-n8:16:32:64-S128"
target triple = "x86_64-pc-linux-gnu"

%struct.filelist = type { i8, i8, ptr }
%struct.file = type { i32, i32, ptr, ptr }

; Function Attrs: nounwind uwtable
define internal void @up_irq_enable() #0 {
  call void asm sideeffect "sti", "~{memory},~{dirflag},~{fpsr},~{flags}"() #6, !srcloc !20
  ret void
}

; Function Attrs: nounwind uwtable
define internal zeroext i1 @up_irq_enabled(i64 noundef %0) #0 {
  %2 = alloca i64, align 8
  store i64 %0, ptr %2, align 8
  %3 = load i64, ptr %2, align 8
  %4 = and i64 %3, 512
  %5 = icmp ne i64 %4, 0
  ret i1 %5
}

; Function Attrs: nounwind uwtable
define internal void @up_irq_disable() #0 {
  call void asm sideeffect "cli", "~{memory},~{dirflag},~{fpsr},~{flags}"() #6, !srcloc !18
  ret void
}

; Function Attrs: nounwind uwtable
define internal i64 @irqflags() #0 {
  %1 = alloca i64, align 8
  call void asm sideeffect "\09pushfq\0A\09popq $0\0A", "=*rm,~{memory},~{dirflag},~{fpsr},~{flags}"(ptr elementtype(i64) %1) #6, !srcloc !19
  %2 = load i64, ptr %1, align 8
  ret i64 %2
}

; Function Attrs: nounwind uwtable
define internal void @up_irq_restore(i64 noundef %0) #0 {
  %2 = alloca i64, align 8
  store i64 %0, ptr %2, align 8
  %3 = load i64, ptr %2, align 8
  %4 = call zeroext i1 @up_irq_enabled(i64 noundef %3)
  br i1 %4, label %5, label %6

5:                                                ; preds = %1
  call void @up_irq_enable()
  br label %6

6:                                                ; preds = %5, %1
  ret void
}

; Function Attrs: nounwind uwtable
define internal i64 @up_irq_save() #0 {
  %1 = alloca i64, align 8
  %2 = call i64 @irqflags()
  store i64 %2, ptr %1, align 8
  call void @up_irq_disable()
  %3 = load i64, ptr %1, align 8
  ret i64 %3
}

; Function Attrs: nounwind uwtable
define internal ptr @files_fget_by_index(ptr noundef %0, i32 noundef %1, i32 noundef %2) #0 {
  %4 = alloca ptr, align 8
  %5 = alloca i32, align 4
  %6 = alloca i32, align 4
  %7 = alloca ptr, align 8
  %8 = alloca i64, align 8
  store ptr %0, ptr %4, align 8
  store i32 %1, ptr %5, align 4
  store i32 %2, ptr %6, align 4
  %9 = call i64 @up_irq_save()
  store i64 %9, ptr %8, align 8
  %10 = load ptr, ptr %4, align 8
  %11 = getelementptr inbounds %struct.filelist, ptr %10, i32 0, i32 2
  %12 = load ptr, ptr %11, align 8
  %13 = load i32, ptr %5, align 4
  %14 = sext i32 %13 to i64
  %15 = getelementptr inbounds ptr, ptr %12, i64 %14
  %16 = load ptr, ptr %15, align 8
  %17 = load i32, ptr %6, align 4
  %18 = sext i32 %17 to i64
  %19 = getelementptr inbounds %struct.file, ptr %16, i64 %18
  store ptr %19, ptr %7, align 8
  %20 = load i64, ptr %8, align 8
  call void @up_irq_restore(i64 noundef %20)
  %21 = load ptr, ptr %7, align 8
  ret ptr %21
}

; Function Attrs: nounwind uwtable
define i32 @file_allocate_from_tcb(ptr noundef %0, ptr noundef %1, i32 noundef %2, i32 noundef %3, ptr noundef %4, i32 noundef %5, i1 noundef zeroext %6) #0 {
  %8 = alloca i32, align 4
  %9 = alloca ptr, align 8
  %10 = alloca ptr, align 8
  %11 = alloca i32, align 4
  %12 = alloca i32, align 4
  %13 = alloca ptr, align 8
  %14 = alloca i32, align 4
  %15 = alloca i8, align 1
  %16 = alloca ptr, align 8
  %17 = alloca ptr, align 8
  %18 = alloca i32, align 4
  %19 = alloca i32, align 4
  %20 = alloca i32, align 4
  store ptr %0, ptr %9, align 8
  store ptr %1, ptr %10, align 8
  store i32 %2, ptr %11, align 4
  store i32 %3, ptr %12, align 4
  store ptr %4, ptr %13, align 8
  store i32 %5, ptr %14, align 4
  %21 = zext i1 %6 to i8
  store i8 %21, ptr %15, align 1
  %22 = load ptr, ptr %9, align 8
  %23 = call ptr @nxsched_get_files_from_tcb(ptr noundef %22)
  store ptr %23, ptr %16, align 8
  %24 = load i32, ptr %14, align 4
  %25 = sdiv i32 %24, 8
  store i32 %25, ptr %19, align 4
  %26 = load i32, ptr %19, align 4
  %27 = load ptr, ptr %16, align 8
  %28 = getelementptr inbounds %struct.filelist, ptr %27, i32 0, i32 1
  %29 = load i8, ptr %28, align 1
  %30 = zext i8 %29 to i32
  %31 = icmp sge i32 %26, %30
  br i1 %31, label %32, label %43

32:                                               ; preds = %7
  %33 = load ptr, ptr %16, align 8
  %34 = load i32, ptr %19, align 4
  %35 = add nsw i32 %34, 1
  %36 = sext i32 %35 to i64
  %37 = call i32 @files_extend(ptr noundef %33, i64 noundef %36)
  store i32 %37, ptr %18, align 4
  %38 = load i32, ptr %18, align 4
  %39 = icmp slt i32 %38, 0
  br i1 %39, label %40, label %42

40:                                               ; preds = %32
  %41 = load i32, ptr %18, align 4
  store i32 %41, ptr %8, align 4
  br label %108

42:                                               ; preds = %32
  br label %43

43:                                               ; preds = %42, %7
  %44 = load i32, ptr %14, align 4
  %45 = srem i32 %44, 8
  store i32 %45, ptr %20, align 4
  br label %46

46:                                               ; preds = %63, %43
  br label %47

47:                                               ; preds = %58, %46
  %48 = load ptr, ptr %16, align 8
  %49 = load i32, ptr %19, align 4
  %50 = load i32, ptr %20, align 4
  %51 = call ptr @files_fget_by_index(ptr noundef %48, i32 noundef %49, i32 noundef %50)
  store ptr %51, ptr %17, align 8
  %52 = load ptr, ptr %17, align 8
  %53 = getelementptr inbounds %struct.file, ptr %52, i32 0, i32 2
  %54 = load ptr, ptr %53, align 8
  %55 = icmp eq ptr %54, null
  br i1 %55, label %56, label %57

56:                                               ; preds = %47
  br label %85

57:                                               ; preds = %47
  br label %58

58:                                               ; preds = %57
  %59 = load i32, ptr %20, align 4
  %60 = add nsw i32 %59, 1
  store i32 %60, ptr %20, align 4
  %61 = icmp slt i32 %60, 8
  br i1 %61, label %47, label %62, !llvm.loop !9

62:                                               ; preds = %58
  store i32 0, ptr %20, align 4
  br label %63

63:                                               ; preds = %62
  %64 = load i32, ptr %19, align 4
  %65 = add nsw i32 %64, 1
  store i32 %65, ptr %19, align 4
  %66 = load ptr, ptr %16, align 8
  %67 = getelementptr inbounds %struct.filelist, ptr %66, i32 0, i32 1
  %68 = load i8, ptr %67, align 1
  %69 = zext i8 %68 to i32
  %70 = icmp slt i32 %65, %69
  br i1 %70, label %46, label %71, !llvm.loop !10

71:                                               ; preds = %63
  %72 = load ptr, ptr %16, align 8
  %73 = load i32, ptr %19, align 4
  %74 = add nsw i32 %73, 1
  %75 = sext i32 %74 to i64
  %76 = call i32 @files_extend(ptr noundef %72, i64 noundef %75)
  store i32 %76, ptr %18, align 4
  %77 = load i32, ptr %18, align 4
  %78 = icmp slt i32 %77, 0
  br i1 %78, label %79, label %81

79:                                               ; preds = %71
  %80 = load i32, ptr %18, align 4
  store i32 %80, ptr %8, align 4
  br label %108

81:                                               ; preds = %71
  %82 = load ptr, ptr %16, align 8
  %83 = load i32, ptr %19, align 4
  %84 = call ptr @files_fget_by_index(ptr noundef %82, i32 noundef %83, i32 noundef 0)
  store ptr %84, ptr %17, align 8
  br label %85

85:                                               ; preds = %81, %56
  %86 = load i32, ptr %11, align 4
  %87 = load ptr, ptr %17, align 8
  %88 = getelementptr inbounds %struct.file, ptr %87, i32 0, i32 0
  store i32 %86, ptr %88, align 8
  %89 = load i32, ptr %12, align 4
  %90 = load ptr, ptr %17, align 8
  %91 = getelementptr inbounds %struct.file, ptr %90, i32 0, i32 1
  store i32 %89, ptr %91, align 4
  %92 = load ptr, ptr %10, align 8
  %93 = load ptr, ptr %17, align 8
  %94 = getelementptr inbounds %struct.file, ptr %93, i32 0, i32 2
  store ptr %92, ptr %94, align 8
  %95 = load ptr, ptr %13, align 8
  %96 = load ptr, ptr %17, align 8
  %97 = getelementptr inbounds %struct.file, ptr %96, i32 0, i32 3
  store ptr %95, ptr %97, align 8
  %98 = load i8, ptr %15, align 1
  %99 = trunc i8 %98 to i1
  br i1 %99, label %100, label %103

100:                                              ; preds = %85
  %101 = load ptr, ptr %10, align 8
  %102 = call i32 @inode_addref(ptr noundef %101)
  br label %103

103:                                              ; preds = %100, %85
  %104 = load i32, ptr %19, align 4
  %105 = mul nsw i32 %104, 8
  %106 = load i32, ptr %20, align 4
  %107 = add nsw i32 %105, %106
  store i32 %107, ptr %8, align 4
  br label %108

108:                                              ; preds = %103, %79, %40
  %109 = load i32, ptr %8, align 4
  ret i32 %109
}